target datalayout = "e-m:e-p270:32:32-p271:32:32-p272:64:64-i64:64-i128:128-f80:128-n8:16:32:64-S128"
target triple = "x86_64-pc-linux-gnu"

@.str.2 = private unnamed_addr constant [30 x i8] c"../openssl/test/rsa_mp_test.c\00", align 1
@.str.7 = private unnamed_addr constant [2 x i8] c"0\00", align 1
@p = internal constant [87 x i8] c"\06w\CD\D5F\9B\C1\D5X\00\81\E2\F3\0A6\B1n)\89\D5/1_\92\22;\9Bu0\82\FA\C5\F5\DE\8A6\DB\C6\E5\8F\EF\147\D6\00\F9\AB\90\9B]WL\F5\1Fw\C4\BB\8B\DD\9Bg\11E\B2d\E8\AC\A8\03\0F\16\0D]-S\07#\FBb\0D\E6\16\D3#\E8\B3\00", align 16
@q = internal constant [87 x i8] c"\06f\9ApS\D6rt\FD\EAE\C3\C0\17\AE\DEy\17\AEy\DE\FC\0E\F7\A4:\8CC\8F\C7\8A\A2,Q\C4\D0r\89s\\a\BE\FDT?\92e\DEMeqp\F6\F2\E5\98\B9\0F\D1\0B\E6\95\09Jz\DF\F3\10\16\D0`\FC\A5\104\977o\0A\D5]\8F\D4\C3\A0[\00", align 16
@dmp1 = internal constant [87 x i8] c"\05|\9E\1C\BD\90%\E7@\86\F5\A8;z?\99V\95`:{\95K\B8\A0\D7\A5\F1\CC\DC_\B5\8C\F4b\95T\ED.\12b\C2\E8\F6\DE\CE\ED\8Ewm\C0@%t\B3Z-\AA\E1\AC\11\CB\E2/\0AQ#\1EG\B2\05\88\02\B2\0FK\F0g0\F0\0Fn\EF_\F7\E7\00", align 16
@dmq1 = internal constant [87 x i8] c"\01\A5k\BC\CD\E3\0EF\C6r\F5\04V(\01\22Xt]\BC\1C<)AIl\81\\r\E2\F7\E5\A3\8EX\16\E0\0E7\AC\1F\BBu\FD\AF\E7\DF\E9\1Fp\A2\8FR\03\C0F\D9\F9\96c\00'~_8`\D6ka\E2\AF\BE\EAX\D3\9D\BCu\03\8DBe\D6k\85\97\00", align 16
@iqmp = internal constant [87 x i8] c"\03\A1\8B\80\E4\D8\87%\17]\CC\8D\A9\8A\22+l\154o\80\CC\1CD\04h\BC\03\CD\95\BBi7aH\B4#\13\08\16Tj\A1|\F5\D4:\E1O\A4\0C\F5\AF\80\85'\06\0Dp\C0\C5\19(\FE\EE\8E\86!\98\8A7\B7\E50%p\93Q-I\85V\B3\0C+\96\00", align 16
@ex_prime = internal constant [87 x i8] c"\03\89\22\A0\B7:\91\CB^\0C\FDs\DE\A78\A9GC\D6\02\BF*\B9<H\F3\06\D6X5PV\16\\4\9Ba\87\C8\AA\0A]\8A\0A\CD\9CA\D9\96$\E0\A9\9B&\B7\A8\08\C9\EA\DC\A7\15\FBb\A0-\90\E6\A7Un\C6l\FF\D6\10m\FA.\04P\EC\\f\E4\05\00", align 16
@ex_exponent = internal constant [87 x i8] c"\02\0A\CD\C3\82\D2\03\B01\AC\D3 \804\9AW\BC`\04W%\D0)\9A\16\90\B9\1CIj\D1\F2G\8C\0E\9E\C9 \C2\D8\E4\8F\CE\D2\1A\9C\EC\B4\1F3A\C8\F5b\D1\A5\EF\1D\A1\D8\BDq\C6\F7\DA\897.\E2\ECG\C5\B8\E3\B4\E3\\\82\AA\DD\B7X.\AF\07y\00", align 16
@ex_coefficient = internal constant [87 x i8] c"\00\9C\09\88\9B\C8W\08ii\AB-\9E)\1C<mY3\12\0D+\09.\AF\01,'\01\FC\BD&\13\F9-\09\22NI\11\03\82\88\87\F4C\1D\AC\CA\EC\86\F7#\F1d\F3\F5\81\F076\CFg\FF\1A\FFz\C7\F9\F9g-\A0\9Da\F8\F6G\\/\E7f\E8<:\E8\00", align 16
@.str.29 = private unnamed_addr constant [30 x i8] c"primes = sk_BIGNUM_new_null()\00", align 1
@.str.30 = private unnamed_addr constant [28 x i8] c"exps = sk_BIGNUM_new_null()\00", align 1
@.str.31 = private unnamed_addr constant [30 x i8] c"coeffs = sk_BIGNUM_new_null()\00", align 1
@.str.32 = private unnamed_addr constant [40 x i8] c"num = BN_bin2bn(p, sizeof(p) - 1, NULL)\00", align 1
@.str.33 = private unnamed_addr constant [28 x i8] c"sk_BIGNUM_push(primes, num)\00", align 1
@.str.34 = private unnamed_addr constant [40 x i8] c"num = BN_bin2bn(q, sizeof(q) - 1, NULL)\00", align 1
@.str.35 = private unnamed_addr constant [54 x i8] c"num = BN_bin2bn(ex_prime, sizeof(ex_prime) - 1, NULL)\00", align 1
@.str.36 = private unnamed_addr constant [46 x i8] c"num = BN_bin2bn(dmp1, sizeof(dmp1) - 1, NULL)\00", align 1
@.str.37 = private unnamed_addr constant [26 x i8] c"sk_BIGNUM_push(exps, num)\00", align 1
@.str.38 = private unnamed_addr constant [46 x i8] c"num = BN_bin2bn(dmq1, sizeof(dmq1) - 1, NULL)\00", align 1
@.str.39 = private unnamed_addr constant [60 x i8] c"num = BN_bin2bn(ex_exponent, sizeof(ex_exponent) - 1, NULL)\00", align 1
@.str.40 = private unnamed_addr constant [46 x i8] c"num = BN_bin2bn(iqmp, sizeof(iqmp) - 1, NULL)\00", align 1
@.str.41 = private unnamed_addr constant [28 x i8] c"sk_BIGNUM_push(coeffs, num)\00", align 1
@.str.42 = private unnamed_addr constant [66 x i8] c"num = BN_bin2bn(ex_coefficient, sizeof(ex_coefficient) - 1, NULL)\00", align 1
@.str.43 = private unnamed_addr constant [52 x i8] c"ossl_rsa_set0_all_params(key, primes, exps, coeffs)\00", align 1

; Function Attrs: inlinehint nounwind uwtable
define internal void @sk_BIGNUM_pop_free(ptr noundef %0, ptr noundef %1) #3 {
  %3 = alloca ptr, align 8
  %4 = alloca ptr, align 8
  store ptr %0, ptr %3, align 8, !tbaa !16
  store ptr %1, ptr %4, align 8, !tbaa !13
  %5 = load ptr, ptr %3, align 8, !tbaa !16
  %6 = load ptr, ptr %4, align 8, !tbaa !13
  call void @OPENSSL_sk_pop_free(ptr noundef %5, ptr noundef %6)
  ret void
}

; Function Attrs: inlinehint nounwind uwtable
define internal void @sk_BIGNUM_free(ptr noundef %0) #3 {
  %2 = alloca ptr, align 8
  store ptr %0, ptr %2, align 8, !tbaa !16
  %3 = load ptr, ptr %2, align 8, !tbaa !16
  call void @OPENSSL_sk_free(ptr noundef %3)
  ret void
}

; Function Attrs: inlinehint nounwind uwtable
define internal i32 @sk_BIGNUM_push(ptr noundef %0, ptr noundef %1) #3 {
  %3 = alloca ptr, align 8
  %4 = alloca ptr, align 8
  store ptr %0, ptr %3, align 8, !tbaa !16
  store ptr %1, ptr %4, align 8, !tbaa !11
  %5 = load ptr, ptr %3, align 8, !tbaa !16
  %6 = load ptr, ptr %4, align 8, !tbaa !11
  %7 = call i32 @OPENSSL_sk_push(ptr noundef %5, ptr noundef %6)
  ret i32 %7
}

; Function Attrs: inlinehint nounwind uwtable
define internal ptr @sk_BIGNUM_new_null() #3 {
  %1 = call ptr @OPENSSL_sk_new_null()
  ret ptr %1
}

; Function Attrs: nounwind uwtable
define internal i32 @key2048p3_v2(ptr noundef %0) #0 {
  %2 = alloca ptr, align 8
  %3 = alloca ptr, align 8
  %4 = alloca ptr, align 8
  %5 = alloca ptr, align 8
  %6 = alloca ptr, align 8
  %7 = alloca i32, align 4
  store ptr %0, ptr %2, align 8, !tbaa !8
  call void @llvm.lifetime.start.p0(i64 8, ptr %3) #4
  store ptr null, ptr %3, align 8, !tbaa !16
  call void @llvm.lifetime.start.p0(i64 8, ptr %4) #4
  store ptr null, ptr %4, align 8, !tbaa !16
  call void @llvm.lifetime.start.p0(i64 8, ptr %5) #4
  store ptr null, ptr %5, align 8, !tbaa !16
  call void @llvm.lifetime.start.p0(i64 8, ptr %6) #4
  store ptr null, ptr %6, align 8, !tbaa !11
  call void @llvm.lifetime.start.p0(i64 4, ptr %7) #4
  %8 = load ptr, ptr %2, align 8, !tbaa !8
  %9 = call i32 @RSA_size(ptr noundef %8)
  store i32 %9, ptr %7, align 4, !tbaa !4
  %10 = call ptr @sk_BIGNUM_new_null()
  store ptr %10, ptr %3, align 8, !tbaa !16
  %11 = call i32 @test_ptr(ptr noundef @.str.2, i32 noundef 206, ptr noundef @.str.29, ptr noundef %10)
  %12 = icmp ne i32 %11, 0
  br i1 %12, label %13, label %21

13:                                               ; preds = %1
  %14 = call ptr @sk_BIGNUM_new_null()
  store ptr %14, ptr %4, align 8, !tbaa !16
  %15 = call i32 @test_ptr(ptr noundef @.str.2, i32 noundef 207, ptr noundef @.str.30, ptr noundef %14)
  %16 = icmp ne i32 %15, 0
  br i1 %16, label %17, label %21

17:                                               ; preds = %13
  %18 = call ptr @sk_BIGNUM_new_null()
  store ptr %18, ptr %5, align 8, !tbaa !16
  %19 = call i32 @test_ptr(ptr noundef @.str.2, i32 noundef 208, ptr noundef @.str.31, ptr noundef %18)
  %20 = icmp ne i32 %19, 0
  br i1 %20, label %22, label %21

21:                                               ; preds = %17, %13, %1
  br label %122

22:                                               ; preds = %17
  %23 = call ptr @BN_bin2bn(ptr noundef @p, i32 noundef 86, ptr noundef null)
  store ptr %23, ptr %6, align 8, !tbaa !11
  %24 = call i32 @test_ptr(ptr noundef @.str.2, i32 noundef 211, ptr noundef @.str.32, ptr noundef %23)
  %25 = icmp ne i32 %24, 0
  br i1 %25, label %26, label %52

26:                                               ; preds = %22
  %27 = load ptr, ptr %3, align 8, !tbaa !16
  %28 = load ptr, ptr %6, align 8, !tbaa !11
  %29 = call i32 @sk_BIGNUM_push(ptr noundef %27, ptr noundef %28)
  %30 = call i32 @test_int_ne(ptr noundef @.str.2, i32 noundef 212, ptr noundef @.str.33, ptr noundef @.str.7, i32 noundef %29, i32 noundef 0)
  %31 = icmp ne i32 %30, 0
  br i1 %31, label %32, label %52

32:                                               ; preds = %26
  %33 = call ptr @BN_bin2bn(ptr noundef @q, i32 noundef 86, ptr noundef null)
  store ptr %33, ptr %6, align 8, !tbaa !11
  %34 = call i32 @test_ptr(ptr noundef @.str.2, i32 noundef 213, ptr noundef @.str.34, ptr noundef %33)
  %35 = icmp ne i32 %34, 0
  br i1 %35, label %36, label %52

36:                                               ; preds = %32
  %37 = load ptr, ptr %3, align 8, !tbaa !16
  %38 = load ptr, ptr %6, align 8, !tbaa !11
  %39 = call i32 @sk_BIGNUM_push(ptr noundef %37, ptr noundef %38)
  %40 = call i32 @test_int_ne(ptr noundef @.str.2, i32 noundef 214, ptr noundef @.str.33, ptr noundef @.str.7, i32 noundef %39, i32 noundef 0)
  %41 = icmp ne i32 %40, 0
  br i1 %41, label %42, label %52

42:                                               ; preds = %36
  %43 = call ptr @BN_bin2bn(ptr noundef @ex_prime, i32 noundef 86, ptr noundef null)
  store ptr %43, ptr %6, align 8, !tbaa !11
  %44 = call i32 @test_ptr(ptr noundef @.str.2, i32 noundef 215, ptr noundef @.str.35, ptr noundef %43)
  %45 = icmp ne i32 %44, 0
  br i1 %45, label %46, label %52

46:                                               ; preds = %42
  %47 = load ptr, ptr %3, align 8, !tbaa !16
  %48 = load ptr, ptr %6, align 8, !tbaa !11
  %49 = call i32 @sk_BIGNUM_push(ptr noundef %47, ptr noundef %48)
  %50 = call i32 @test_int_ne(ptr noundef @.str.2, i32 noundef 216, ptr noundef @.str.33, ptr noundef @.str.7, i32 noundef %49, i32 noundef 0)
  %51 = icmp ne i32 %50, 0
  br i1 %51, label %53, label %52

52:                                               ; preds = %46, %42, %36, %32, %26, %22
  br label %122

53:                                               ; preds = %46
  %54 = call ptr @BN_bin2bn(ptr noundef @dmp1, i32 noundef 86, ptr noundef null)
  store ptr %54, ptr %6, align 8, !tbaa !11
  %55 = call i32 @test_ptr(ptr noundef @.str.2, i32 noundef 219, ptr noundef @.str.36, ptr noundef %54)
  %56 = icmp ne i32 %55, 0
  br i1 %56, label %57, label %83

57:                                               ; preds = %53
  %58 = load ptr, ptr %4, align 8, !tbaa !16
  %59 = load ptr, ptr %6, align 8, !tbaa !11
  %60 = call i32 @sk_BIGNUM_push(ptr noundef %58, ptr noundef %59)
  %61 = call i32 @test_int_ne(ptr noundef @.str.2, i32 noundef 220, ptr noundef @.str.37, ptr noundef @.str.7, i32 noundef %60, i32 noundef 0)
  %62 = icmp ne i32 %61, 0
  br i1 %62, label %63, label %83

63:                                               ; preds = %57
  %64 = call ptr @BN_bin2bn(ptr noundef @dmq1, i32 noundef 86, ptr noundef null)
  store ptr %64, ptr %6, align 8, !tbaa !11
  %65 = call i32 @test_ptr(ptr noundef @.str.2, i32 noundef 221, ptr noundef @.str.38, ptr noundef %64)
  %66 = icmp ne i32 %65, 0
  br i1 %66, label %67, label %83

67:                                               ; preds = %63
  %68 = load ptr, ptr %4, align 8, !tbaa !16
  %69 = load ptr, ptr %6, align 8, !tbaa !11
  %70 = call i32 @sk_BIGNUM_push(ptr noundef %68, ptr noundef %69)
  %71 = call i32 @test_int_ne(ptr noundef @.str.2, i32 noundef 222, ptr noundef @.str.37, ptr noundef @.str.7, i32 noundef %70, i32 noundef 0)
  %72 = icmp ne i32 %71, 0
  br i1 %72, label %73, label %83

73:                                               ; preds = %67
  %74 = call ptr @BN_bin2bn(ptr noundef @ex_exponent, i32 noundef 86, ptr noundef null)
  store ptr %74, ptr %6, align 8, !tbaa !11
  %75 = call i32 @test_ptr(ptr noundef @.str.2, i32 noundef 223, ptr noundef @.str.39, ptr noundef %74)
  %76 = icmp ne i32 %75, 0
  br i1 %76, label %77, label %83

77:                                               ; preds = %73
  %78 = load ptr, ptr %4, align 8, !tbaa !16
  %79 = load ptr, ptr %6, align 8, !tbaa !11
  %80 = call i32 @sk_BIGNUM_push(ptr noundef %78, ptr noundef %79)
  %81 = call i32 @test_int_ne(ptr noundef @.str.2, i32 noundef 224, ptr noundef @.str.37, ptr noundef @.str.7, i32 noundef %80, i32 noundef 0)
  %82 = icmp ne i32 %81, 0
  br i1 %82, label %84, label %83

83:                                               ; preds = %77, %73, %67, %63, %57, %53
  br label %122

84:                                               ; preds = %77
  %85 = call ptr @BN_bin2bn(ptr noundef @iqmp, i32 noundef 86, ptr noundef null)
  store ptr %85, ptr %6, align 8, !tbaa !11
  %86 = call i32 @test_ptr(ptr noundef @.str.2, i32 noundef 227, ptr noundef @.str.40, ptr noundef %85)
  %87 = icmp ne i32 %86, 0
  br i1 %87, label %88, label %104

88:                                               ; preds = %84
  %89 = load ptr, ptr %5, align 8, !tbaa !16
  %90 = load ptr, ptr %6, align 8, !tbaa !11
  %91 = call i32 @sk_BIGNUM_push(ptr noundef %89, ptr noundef %90)
  %92 = call i32 @test_int_ne(ptr noundef @.str.2, i32 noundef 228, ptr noundef @.str.41, ptr noundef @.str.7, i32 noundef %91, i32 noundef 0)
  %93 = icmp ne i32 %92, 0
  br i1 %93, label %94, label %104

94:                                               ; preds = %88
  %95 = call ptr @BN_bin2bn(ptr noundef @ex_coefficient, i32 noundef 86, ptr noundef null)
  store ptr %95, ptr %6, align 8, !tbaa !11
  %96 = call i32 @test_ptr(ptr noundef @.str.2, i32 noundef 229, ptr noundef @.str.42, ptr noundef %95)
  %97 = icmp ne i32 %96, 0
  br i1 %97, label %98, label %104

98:                                               ; preds = %94
  %99 = load ptr, ptr %5, align 8, !tbaa !16
  %100 = load ptr, ptr %6, align 8, !tbaa !11
  %101 = call i32 @sk_BIGNUM_push(ptr noundef %99, ptr noundef %100)
  %102 = call i32 @test_int_ne(ptr noundef @.str.2, i32 noundef 230, ptr noundef @.str.41, ptr noundef @.str.7, i32 noundef %101, i32 noundef 0)
  %103 = icmp ne i32 %102, 0
  br i1 %103, label %105, label %104

104:                                              ; preds = %98, %94, %88, %84
  br label %122

105:                                              ; preds = %98
  %106 = load ptr, ptr %2, align 8, !tbaa !8
  %107 = load ptr, ptr %3, align 8, !tbaa !16
  %108 = load ptr, ptr %4, align 8, !tbaa !16
  %109 = load ptr, ptr %5, align 8, !tbaa !16
  %110 = call i32 @ossl_rsa_set0_all_params(ptr noundef %106, ptr noundef %107, ptr noundef %108, ptr noundef %109)
  %111 = icmp ne i32 %110, 0
  %112 = zext i1 %111 to i32
  %113 = call i32 @test_true(ptr noundef @.str.2, i32 noundef 233, ptr noundef @.str.43, i32 noundef %112)
  %114 = icmp ne i32 %113, 0
  br i1 %114, label %116, label %115

115:                                              ; preds = %105
  br label %122

116:                                              ; preds = %105
  br label %117

117:                                              ; preds = %122, %116
  %118 = load ptr, ptr %3, align 8, !tbaa !16
  call void @sk_BIGNUM_free(ptr noundef %118)
  %119 = load ptr, ptr %4, align 8, !tbaa !16
  call void @sk_BIGNUM_free(ptr noundef %119)
  %120 = load ptr, ptr %5, align 8, !tbaa !16
  call void @sk_BIGNUM_free(ptr noundef %120)
  %121 = load i32, ptr %7, align 4, !tbaa !4
  call void @llvm.lifetime.end.p0(i64 4, ptr %7) #4
  call void @llvm.lifetime.end.p0(i64 8, ptr %6) #4
  call void @llvm.lifetime.end.p0(i64 8, ptr %5) #4
  call void @llvm.lifetime.end.p0(i64 8, ptr %4) #4
  call void @llvm.lifetime.end.p0(i64 8, ptr %3) #4
  ret i32 %121

122:                                              ; preds = %115, %104, %83, %52, %21
  %123 = load ptr, ptr %3, align 8, !tbaa !16
  call void @sk_BIGNUM_pop_free(ptr noundef %123, ptr noundef @BN_free)
  %124 = load ptr, ptr %4, align 8, !tbaa !16
  call void @sk_BIGNUM_pop_free(ptr noundef %124, ptr noundef @BN_free)
  %125 = load ptr, ptr %5, align 8, !tbaa !16
  call void @sk_BIGNUM_pop_free(ptr noundef %125, ptr noundef @BN_free)
  store ptr null, ptr %5, align 8, !tbaa !16
  store ptr null, ptr %4, align 8, !tbaa !16
  store ptr null, ptr %3, align 8, !tbaa !16
  store i32 0, ptr %7, align 4, !tbaa !4
  br label %117
}