; Function Attrs: nounwind uwtable
define internal i32 @key2048p3_v2(ptr noundef %0) #0 {
  %2 = tail call i32 @RSA_size(ptr noundef %0) #3
  %3 = tail call ptr @OPENSSL_sk_new_null() #3
  %4 = tail call i32 @test_ptr(ptr noundef nonnull @.str.2, i32 noundef 206, ptr noundef nonnull @.str.29, ptr noundef %3) #3
  %.not = icmp eq i32 %4, 0
  br i1 %.not, label %65, label %5

5:                                                ; preds = %1
  %6 = tail call ptr @OPENSSL_sk_new_null() #3
  %7 = tail call i32 @test_ptr(ptr noundef nonnull @.str.2, i32 noundef 207, ptr noundef nonnull @.str.30, ptr noundef %6) #3
  %.not31 = icmp eq i32 %7, 0
  br i1 %.not31, label %65, label %8

8:                                                ; preds = %5
  %9 = tail call ptr @OPENSSL_sk_new_null() #3
  %10 = tail call i32 @test_ptr(ptr noundef nonnull @.str.2, i32 noundef 208, ptr noundef nonnull @.str.31, ptr noundef %9) #3
  %.not32 = icmp eq i32 %10, 0
  br i1 %.not32, label %65, label %11

11:                                               ; preds = %8
  %12 = tail call ptr @BN_bin2bn(ptr noundef nonnull @p, i32 noundef 86, ptr noundef null) #3
  %13 = tail call i32 @test_ptr(ptr noundef nonnull @.str.2, i32 noundef 211, ptr noundef nonnull @.str.32, ptr noundef %12) #3
  %.not33 = icmp eq i32 %13, 0
  br i1 %.not33, label %65, label %14

14:                                               ; preds = %11
  %15 = tail call i32 @OPENSSL_sk_push(ptr noundef %3, ptr noundef %12) #3
  %16 = tail call i32 @test_int_ne(ptr noundef nonnull @.str.2, i32 noundef 212, ptr noundef nonnull @.str.33, ptr noundef nonnull @.str.7, i32 noundef %15, i32 noundef 0) #3
  %.not34 = icmp eq i32 %16, 0
  br i1 %.not34, label %65, label %17

17:                                               ; preds = %14
  %18 = tail call ptr @BN_bin2bn(ptr noundef nonnull @q, i32 noundef 86, ptr noundef null) #3
  %19 = tail call i32 @test_ptr(ptr noundef nonnull @.str.2, i32 noundef 213, ptr noundef nonnull @.str.34, ptr noundef %18) #3
  %.not35 = icmp eq i32 %19, 0
  br i1 %.not35, label %65, label %20

20:                                               ; preds = %17
  %21 = tail call i32 @OPENSSL_sk_push(ptr noundef %3, ptr noundef %18) #3
  %22 = tail call i32 @test_int_ne(ptr noundef nonnull @.str.2, i32 noundef 214, ptr noundef nonnull @.str.33, ptr noundef nonnull @.str.7, i32 noundef %21, i32 noundef 0) #3
  %.not36 = icmp eq i32 %22, 0
  br i1 %.not36, label %65, label %23

23:                                               ; preds = %20
  %24 = tail call ptr @BN_bin2bn(ptr noundef nonnull @ex_prime, i32 noundef 86, ptr noundef null) #3
  %25 = tail call i32 @test_ptr(ptr noundef nonnull @.str.2, i32 noundef 215, ptr noundef nonnull @.str.35, ptr noundef %24) #3
  %.not37 = icmp eq i32 %25, 0
  br i1 %.not37, label %65, label %26

26:                                               ; preds = %23
  %27 = tail call i32 @OPENSSL_sk_push(ptr noundef %3, ptr noundef %24) #3
  %28 = tail call i32 @test_int_ne(ptr noundef nonnull @.str.2, i32 noundef 216, ptr noundef nonnull @.str.33, ptr noundef nonnull @.str.7, i32 noundef %27, i32 noundef 0) #3
  %.not38 = icmp eq i32 %28, 0
  br i1 %.not38, label %65, label %29

29:                                               ; preds = %26
  %30 = tail call ptr @BN_bin2bn(ptr noundef nonnull @dmp1, i32 noundef 86, ptr noundef null) #3
  %31 = tail call i32 @test_ptr(ptr noundef nonnull @.str.2, i32 noundef 219, ptr noundef nonnull @.str.36, ptr noundef %30) #3
  %.not39 = icmp eq i32 %31, 0
  br i1 %.not39, label %65, label %32

32:                                               ; preds = %29
  %33 = tail call i32 @OPENSSL_sk_push(ptr noundef %6, ptr noundef %30) #3
  %34 = tail call i32 @test_int_ne(ptr noundef nonnull @.str.2, i32 noundef 220, ptr noundef nonnull @.str.37, ptr noundef nonnull @.str.7, i32 noundef %33, i32 noundef 0) #3
  %.not40 = icmp eq i32 %34, 0
  br i1 %.not40, label %65, label %35

35:                                               ; preds = %32
  %36 = tail call ptr @BN_bin2bn(ptr noundef nonnull @dmq1, i32 noundef 86, ptr noundef null) #3
  %37 = tail call i32 @test_ptr(ptr noundef nonnull @.str.2, i32 noundef 221, ptr noundef nonnull @.str.38, ptr noundef %36) #3
  %.not41 = icmp eq i32 %37, 0
  br i1 %.not41, label %65, label %38

38:                                               ; preds = %35
  %39 = tail call i32 @OPENSSL_sk_push(ptr noundef %6, ptr noundef %36) #3
  %40 = tail call i32 @test_int_ne(ptr noundef nonnull @.str.2, i32 noundef 222, ptr noundef nonnull @.str.37, ptr noundef nonnull @.str.7, i32 noundef %39, i32 noundef 0) #3
  %.not42 = icmp eq i32 %40, 0
  br i1 %.not42, label %65, label %41

41:                                               ; preds = %38
  %42 = tail call ptr @BN_bin2bn(ptr noundef nonnull @ex_exponent, i32 noundef 86, ptr noundef null) #3
  %43 = tail call i32 @test_ptr(ptr noundef nonnull @.str.2, i32 noundef 223, ptr noundef nonnull @.str.39, ptr noundef %42) #3
  %.not43 = icmp eq i32 %43, 0
  br i1 %.not43, label %65, label %44

44:                                               ; preds = %41
  %45 = tail call i32 @OPENSSL_sk_push(ptr noundef %6, ptr noundef %42) #3
  %46 = tail call i32 @test_int_ne(ptr noundef nonnull @.str.2, i32 noundef 224, ptr noundef nonnull @.str.37, ptr noundef nonnull @.str.7, i32 noundef %45, i32 noundef 0) #3
  %.not44 = icmp eq i32 %46, 0
  br i1 %.not44, label %65, label %47

47:                                               ; preds = %44
  %48 = tail call ptr @BN_bin2bn(ptr noundef nonnull @iqmp, i32 noundef 86, ptr noundef null) #3
  %49 = tail call i32 @test_ptr(ptr noundef nonnull @.str.2, i32 noundef 227, ptr noundef nonnull @.str.40, ptr noundef %48) #3
  %.not45 = icmp eq i32 %49, 0
  br i1 %.not45, label %65, label %50

50:                                               ; preds = %47
  %51 = tail call i32 @OPENSSL_sk_push(ptr noundef %9, ptr noundef %48) #3
  %52 = tail call i32 @test_int_ne(ptr noundef nonnull @.str.2, i32 noundef 228, ptr noundef nonnull @.str.41, ptr noundef nonnull @.str.7, i32 noundef %51, i32 noundef 0) #3
  %.not46 = icmp eq i32 %52, 0
  br i1 %.not46, label %65, label %53

53:                                               ; preds = %50
  %54 = tail call ptr @BN_bin2bn(ptr noundef nonnull @ex_coefficient, i32 noundef 86, ptr noundef null) #3
  %55 = tail call i32 @test_ptr(ptr noundef nonnull @.str.2, i32 noundef 229, ptr noundef nonnull @.str.42, ptr noundef %54) #3
  %.not47 = icmp eq i32 %55, 0
  br i1 %.not47, label %65, label %56

56:                                               ; preds = %53
  %57 = tail call i32 @OPENSSL_sk_push(ptr noundef %9, ptr noundef %54) #3
  %58 = tail call i32 @test_int_ne(ptr noundef nonnull @.str.2, i32 noundef 230, ptr noundef nonnull @.str.41, ptr noundef nonnull @.str.7, i32 noundef %57, i32 noundef 0) #3
  %.not48 = icmp eq i32 %58, 0
  br i1 %.not48, label %65, label %59

59:                                               ; preds = %56
  %60 = tail call i32 @ossl_rsa_set0_all_params(ptr noundef %0, ptr noundef %3, ptr noundef %6, ptr noundef %9) #3
  %61 = icmp ne i32 %60, 0
  %62 = zext i1 %61 to i32
  %63 = tail call i32 @test_true(ptr noundef nonnull @.str.2, i32 noundef 233, ptr noundef nonnull @.str.43, i32 noundef %62) #3
  %.not49 = icmp eq i32 %63, 0
  br i1 %.not49, label %65, label %64

64:                                               ; preds = %59, %65
  %.030 = phi ptr [ %3, %59 ], [ null, %65 ]
  %.129 = phi ptr [ %6, %59 ], [ null, %65 ]
  %.1 = phi ptr [ %9, %59 ], [ null, %65 ]
  %.0 = phi i32 [ %2, %59 ], [ 0, %65 ]
  tail call void @OPENSSL_sk_free(ptr noundef %.030) #3
  tail call void @OPENSSL_sk_free(ptr noundef %.129) #3
  tail call void @OPENSSL_sk_free(ptr noundef %.1) #3
  ret i32 %.0

65:                                               ; preds = %59, %47, %50, %53, %56, %29, %32, %35, %38, %41, %44, %11, %14, %17, %20, %23, %26, %1, %5, %8
  %.028 = phi ptr [ %6, %59 ], [ %6, %56 ], [ %6, %53 ], [ %6, %50 ], [ %6, %47 ], [ %6, %44 ], [ %6, %41 ], [ %6, %38 ], [ %6, %35 ], [ %6, %32 ], [ %6, %29 ], [ %6, %26 ], [ %6, %23 ], [ %6, %20 ], [ %6, %17 ], [ %6, %14 ], [ %6, %11 ], [ %6, %8 ], [ %6, %5 ], [ null, %1 ]
  %.027 = phi ptr [ %9, %59 ], [ %9, %56 ], [ %9, %53 ], [ %9, %50 ], [ %9, %47 ], [ %9, %44 ], [ %9, %41 ], [ %9, %38 ], [ %9, %35 ], [ %9, %32 ], [ %9, %29 ], [ %9, %26 ], [ %9, %23 ], [ %9, %20 ], [ %9, %17 ], [ %9, %14 ], [ %9, %11 ], [ %9, %8 ], [ null, %5 ], [ null, %1 ]
  tail call void @OPENSSL_sk_pop_free(ptr noundef %3, ptr noundef nonnull @BN_free) #3
  tail call void @OPENSSL_sk_pop_free(ptr noundef %.028, ptr noundef nonnull @BN_free) #3
  tail call void @OPENSSL_sk_pop_free(ptr noundef %.027, ptr noundef nonnull @BN_free) #3
  br label %64
}